; Function Attrs: nounwind uwtable
define ptr @l_Array_mapMUnsafe_map___at___private_Lean_Elab_PreDefinition_Structural_BRecOn_0__Lean_Elab_Structural_replaceRecApps_loop___spec__30___boxed(ptr noundef %0, ptr noundef %1, ptr noundef %2, ptr noundef %3, ptr noundef %4, ptr noundef %5, ptr noundef %6, ptr noundef %7, ptr noundef %8, ptr noundef %9, ptr noundef %10, ptr noundef %11, ptr noundef %12, ptr noundef %13) local_unnamed_addr #0 {
  %15 = getelementptr i8, ptr %4, i64 8
  %.val29 = load i64, ptr %15, align 8, !tbaa !12
  %16 = ptrtoint ptr %4 to i64
  %17 = and i64 %16, 1
  %.not = icmp eq i64 %17, 0
  br i1 %.not, label %18, label %lean_dec.exit22

18:                                               ; preds = %14
  %19 = load i32, ptr %4, align 4, !tbaa !8
  %20 = icmp sgt i32 %19, 1
  br i1 %20, label %21, label %23, !prof !11

21:                                               ; preds = %18
  %22 = add nsw i32 %19, -1
  store i32 %22, ptr %4, align 4, !tbaa !8
  br label %lean_dec.exit22

23:                                               ; preds = %18
  %.not.i = icmp eq i32 %19, 0
  br i1 %.not.i, label %lean_dec.exit22, label %24

24:                                               ; preds = %23
  tail call void @lean_dec_ref_cold(ptr noundef nonnull %4) #6
  br label %lean_dec.exit22

lean_dec.exit22:                                  ; preds = %24, %23, %21, %14
  %25 = getelementptr i8, ptr %5, i64 8
  %.val = load i64, ptr %25, align 8, !tbaa !12
  %26 = ptrtoint ptr %5 to i64
  %27 = and i64 %26, 1
  %.not30 = icmp eq i64 %27, 0
  br i1 %.not30, label %28, label %lean_dec.exit21

28:                                               ; preds = %lean_dec.exit22
  %29 = load i32, ptr %5, align 4, !tbaa !8
  %30 = icmp sgt i32 %29, 1
  br i1 %30, label %31, label %33, !prof !11

31:                                               ; preds = %28
  %32 = add nsw i32 %29, -1
  store i32 %32, ptr %5, align 4, !tbaa !8
  br label %lean_dec.exit21

33:                                               ; preds = %28
  %.not.i23 = icmp eq i32 %29, 0
  br i1 %.not.i23, label %lean_dec.exit21, label %34

34:                                               ; preds = %33
  tail call void @lean_dec_ref_cold(ptr noundef nonnull %5) #6
  br label %lean_dec.exit21

lean_dec.exit21:                                  ; preds = %34, %33, %31, %lean_dec.exit22
  %35 = tail call ptr @l_Array_mapMUnsafe_map___at___private_Lean_Elab_PreDefinition_Structural_BRecOn_0__Lean_Elab_Structural_replaceRecApps_loop___spec__30(ptr noundef %0, ptr noundef %1, ptr poison, ptr noundef %3, i64 noundef %.val29, i64 noundef %.val, ptr noundef %6, ptr poison, ptr noundef %8, ptr noundef %9, ptr noundef %10, ptr noundef %11, ptr noundef %12, ptr noundef %13)
  %36 = ptrtoint ptr %7 to i64
  %37 = and i64 %36, 1
  %.not31 = icmp eq i64 %37, 0
  br i1 %.not31, label %38, label %lean_dec.exit20

38:                                               ; preds = %lean_dec.exit21
  %39 = load i32, ptr %7, align 4, !tbaa !8
  %40 = icmp sgt i32 %39, 1
  br i1 %40, label %41, label %43, !prof !11

41:                                               ; preds = %38
  %42 = add nsw i32 %39, -1
  store i32 %42, ptr %7, align 4, !tbaa !8
  br label %lean_dec.exit20

43:                                               ; preds = %38
  %.not.i25 = icmp eq i32 %39, 0
  br i1 %.not.i25, label %lean_dec.exit20, label %44

44:                                               ; preds = %43
  tail call void @lean_dec_ref_cold(ptr noundef nonnull %7) #6
  br label %lean_dec.exit20

lean_dec.exit20:                                  ; preds = %44, %43, %41, %lean_dec.exit21
  %45 = ptrtoint ptr %2 to i64
  %46 = and i64 %45, 1
  %.not32 = icmp eq i64 %46, 0
  br i1 %.not32, label %47, label %lean_dec.exit

47:                                               ; preds = %lean_dec.exit20
  %48 = load i32, ptr %2, align 4, !tbaa !8
  %49 = icmp sgt i32 %48, 1
  br i1 %49, label %50, label %52, !prof !11

50:                                               ; preds = %47
  %51 = add nsw i32 %48, -1
  store i32 %51, ptr %2, align 4, !tbaa !8
  br label %lean_dec.exit

52:                                               ; preds = %47
  %.not.i27 = icmp eq i32 %48, 0
  br i1 %.not.i27, label %lean_dec.exit, label %53

53:                                               ; preds = %52
  tail call void @lean_dec_ref_cold(ptr noundef nonnull %2) #6
  br label %lean_dec.exit

lean_dec.exit:                                    ; preds = %53, %52, %50, %lean_dec.exit20
  ret ptr %35
}